target datalayout = "e-m:e-p270:32:32-p271:32:32-p272:64:64-i64:64-i128:128-f80:128-n8:16:32:64-S128"
target triple = "x86_64-pc-linux-gnu"

@hf_msmms_command_prefix1_command_level = internal global i32 0, align 4
@hf_msmms_command_prefix2 = internal global i32 0, align 4
@hf_msmms_command_header_packet_id_type = internal global i32 0, align 4

; Function Attrs: null_pointer_is_valid sspstrong uwtable
define internal void @dissect_header_request(ptr noundef %0, ptr noundef %1, i32 noundef %2) #0 {
  %4 = alloca ptr, align 8
  %5 = alloca ptr, align 8
  %6 = alloca i32, align 4
  %7 = alloca i32, align 4
  store ptr %0, ptr %4, align 8
  store ptr %1, ptr %5, align 8
  store i32 %2, ptr %6, align 4
  call void @llvm.lifetime.start.p0(i64 4, ptr %7) #7
  %8 = load ptr, ptr %5, align 8
  %9 = load i32, ptr @hf_msmms_command_prefix1_command_level, align 4
  %10 = load ptr, ptr %4, align 8
  %11 = load i32, ptr %6, align 4
  %12 = call ptr @proto_tree_add_item(ptr noundef %8, i32 noundef %9, ptr noundef %10, i32 noundef %11, i32 noundef 4, i32 noundef -2147483648)
  %13 = load i32, ptr %6, align 4
  %14 = add i32 %13, 4
  store i32 %14, ptr %6, align 4
  %15 = load ptr, ptr %5, align 8
  %16 = load i32, ptr @hf_msmms_command_prefix2, align 4
  %17 = load ptr, ptr %4, align 8
  %18 = load i32, ptr %6, align 4
  %19 = call ptr @proto_tree_add_item(ptr noundef %15, i32 noundef %16, ptr noundef %17, i32 noundef %18, i32 noundef 4, i32 noundef -2147483648)
  %20 = load i32, ptr %6, align 4
  %21 = add i32 %20, 4
  store i32 %21, ptr %6, align 4
  store i32 0, ptr %7, align 4
  br label %22

22:                                               ; preds = %28, %3
  %23 = load i32, ptr %7, align 4
  %24 = icmp slt i32 %23, 8
  br i1 %24, label %25, label %31

25:                                               ; preds = %22
  %26 = load i32, ptr %6, align 4
  %27 = add i32 %26, 4
  store i32 %27, ptr %6, align 4
  br label %28

28:                                               ; preds = %25
  %29 = load i32, ptr %7, align 4
  %30 = add i32 %29, 1
  store i32 %30, ptr %7, align 4
  br label %22, !llvm.loop !8

31:                                               ; preds = %22
  %32 = load ptr, ptr %5, align 8
  %33 = load i32, ptr @hf_msmms_command_header_packet_id_type, align 4
  %34 = load ptr, ptr %4, align 8
  %35 = load i32, ptr %6, align 4
  %36 = call ptr @proto_tree_add_item(ptr noundef %32, i32 noundef %33, ptr noundef %34, i32 noundef %35, i32 noundef 4, i32 noundef -2147483648)
  call void @llvm.lifetime.end.p0(i64 4, ptr %7) #7
  ret void
}