; Function Attrs: null_pointer_is_valid sspstrong uwtable
define internal fastcc void @dissect_header_request(ptr noundef %0, ptr noundef %1) unnamed_addr #0 {
  %3 = load i32, ptr @hf_msmms_command_prefix1_command_level, align 4
  %4 = tail call ptr @proto_tree_add_item(ptr noundef %1, i32 noundef %3, ptr noundef %0, i32 noundef 40, i32 noundef 4, i32 noundef -2147483648)
  %5 = load i32, ptr @hf_msmms_command_prefix2, align 4
  %6 = tail call ptr @proto_tree_add_item(ptr noundef %1, i32 noundef %5, ptr noundef %0, i32 noundef 44, i32 noundef 4, i32 noundef -2147483648)
  %7 = load i32, ptr @hf_msmms_command_header_packet_id_type, align 4
  %8 = tail call ptr @proto_tree_add_item(ptr noundef %1, i32 noundef %7, ptr noundef %0, i32 noundef 80, i32 noundef 4, i32 noundef -2147483648)
  ret void
}